target datalayout = "e-m:e-p270:32:32-p271:32:32-p272:64:64-i64:64-i128:128-f80:128-n8:16:32:64-S128"
target triple = "x86_64-pc-linux-gnu"

; Function Attrs: nounwind uwtable
define ptr @dtgtk_gradient_slider_multivalue_new_with_name(i32 noundef %0, ptr noundef %1) #0 {
  %3 = alloca i32, align 4
  %4 = alloca ptr, align 8
  %5 = alloca ptr, align 8
  store i32 %0, ptr %3, align 4, !tbaa !13
  store ptr %1, ptr %4, align 8, !tbaa !52
  call void @llvm.lifetime.start.p0(i64 8, ptr %5) #11
  %6 = load i32, ptr %3, align 4, !tbaa !13
  %7 = call ptr @dtgtk_gradient_slider_multivalue_new(i32 noundef %6)
  %8 = call i64 @gtk_widget_get_type() #12
  %9 = call ptr @g_type_check_instance_cast(ptr noundef %7, i64 noundef %8)
  store ptr %9, ptr %5, align 8, !tbaa !54
  %10 = load ptr, ptr %4, align 8, !tbaa !52
  %11 = icmp ne ptr %10, null
  br i1 %11, label %12, label %15

12:                                               ; preds = %2
  %13 = load ptr, ptr %5, align 8, !tbaa !54
  %14 = load ptr, ptr %4, align 8, !tbaa !52
  call void @gtk_widget_set_name(ptr noundef %13, ptr noundef %14)
  br label %15

15:                                               ; preds = %12, %2
  %16 = load ptr, ptr %5, align 8, !tbaa !54
  call void @llvm.lifetime.end.p0(i64 8, ptr %5) #11
  ret ptr %16
}