; Function Attrs: nounwind uwtable
define ptr @dtgtk_gradient_slider_multivalue_new_with_name(i32 noundef %0, ptr noundef %1) local_unnamed_addr #0 {
  %3 = tail call ptr @dtgtk_gradient_slider_multivalue_new(i32 noundef %0)
  %4 = tail call i64 @gtk_widget_get_type() #15
  %5 = tail call ptr @g_type_check_instance_cast(ptr noundef %3, i64 noundef %4) #14
  %.not = icmp eq ptr %1, null
  br i1 %.not, label %7, label %6

6:                                                ; preds = %2
  tail call void @gtk_widget_set_name(ptr noundef %5, ptr noundef nonnull %1) #14
  br label %7

7:                                                ; preds = %6, %2
  ret ptr %5
}